TN:
SF:/home/atohs/C/CUtils/include/Bitset/Bitset.h
FN:28,Bitset_Clear
FN:35,Bitset_And
FN:42,Bitset_Or
FN:49,Bitset_ExclusiveOr
FN:56,Bitset_Set
FN:67,Bitset_Reset
FN:77,Bitset_Flip
FN:86,Bitset_Count
FN:97,Bitset_Test
FN:108,Bitset_Any
FN:121,Bitset_All
FN:134,Bitset_None
FNDA:15,Bitset_Flip
FNDA:10,Bitset_Count
FNDA:15,Bitset_Clear
FNDA:30,Bitset_Test
FNDA:10,Bitset_ExclusiveOr
FNDA:15,Bitset_All
FNDA:50,Bitset_Or
FNDA:70,Bitset_Set
FNDA:25,Bitset_Any
FNDA:15,Bitset_None
FNDA:20,Bitset_Reset
FNDA:15,Bitset_And
FNF:12
FNH:12
DA:28,15
DA:29,15
DA:30,5
DA:32,10
DA:35,15
DA:36,15
DA:37,5
DA:39,10
DA:42,50
DA:43,50
DA:44,5
DA:46,45
DA:49,10
DA:50,10
DA:51,5
DA:53,5
DA:56,70
DA:57,70
DA:58,5
DA:60,65
DA:61,5
DA:63,60
DA:64,60
DA:67,20
DA:68,20
DA:69,5
DA:71,15
DA:72,5
DA:74,10
DA:75,10
DA:77,15
DA:78,15
DA:79,5
DA:81,30
DA:82,20
DA:86,10
DA:87,10
DA:88,5
DA:90,5
DA:91,15
DA:92,10
DA:94,5
DA:97,30
DA:98,30
DA:99,5
DA:101,25
DA:102,5
DA:104,20
DA:105,20
DA:108,25
DA:109,25
DA:110,5
DA:113,40
DA:114,30
DA:115,10
DA:118,10
DA:121,15
DA:122,15
DA:123,5
DA:126,20
DA:127,15
DA:128,5
DA:131,5
DA:134,15
DA:135,15
DA:136,5
DA:138,10
LF:67
LH:67
end_of_record
TN:
SF:/home/atohs/C/CUtils/lib/Bitset/Bitset.c
FN:8,Bitset_Init
FN:18,Bitset_Destroy
FN:27,Bitset_RightShift
FN:58,Bitset_LeftShift
FN:86,BinaryToString
FN:95,Bitset_ToString
FNDA:60,Bitset_Destroy
FNDA:12,Bitset_RightShift
FNDA:60,Bitset_Init
FNDA:6,Bitset_ToString
FNDA:18,Bitset_LeftShift
FNDA:6,BinaryToString
FNF:6
FNH:6
DA:8,60
DA:9,60
DA:10,3
DA:12,57
DA:13,57
DA:14,57
DA:15,57
DA:18,60
DA:19,60
DA:20,3
DA:22,57
DA:23,57
DA:24,57
DA:27,12
DA:28,12
DA:29,3
DA:31,9
DA:32,0
DA:34,9
DA:35,9
DA:36,3
DA:37,3
DA:39,6
DA:40,6
DA:42,6
DA:43,6
DA:44,3
DA:47,3
DA:48,6
DA:49,3
DA:50,3
DA:53,3
DA:55,6
DA:58,18
DA:59,18
DA:60,3
DA:62,15
DA:63,0
DA:65,15
DA:66,15
DA:67,3
DA:68,3
DA:70,12
DA:72,12
DA:73,18
DA:74,9
DA:77,3
DA:78,6
DA:79,3
DA:81,3
DA:83,12
DA:86,6
DA:87,6
DA:88,0
DA:90,6
DA:91,390
DA:92,384
DA:95,6
DA:96,6
DA:97,3
DA:99,3
DA:100,3
DA:102,3
DA:103,3
DA:104,3
DA:105,3
DA:106,0
DA:107,0
DA:109,9
DA:110,6
DA:111,6
DA:113,3
DA:114,3
LF:73
LH:68
end_of_record
TN:
SF:/home/atohs/C/CUtils/tests/Bitset/main.cpp
FN:15,_ZN10BitsetTest5SetUpEv
FN:18,_ZN10BitsetTest8TearDownEv
FN:21,_ZN10BitsetTest3GetEv
FN:26,_ZN26BitsetTest_Initialize_TestD2Ev
FN:26,_ZN26BitsetTest_Initialize_TestD0Ev
FN:26,_ZN26BitsetTest_Initialize_Test8TestBodyEv
FN:26,_ZN26BitsetTest_Initialize_TestC2Ev
FN:37,_ZN18BitsetTest_Or_Test8TestBodyEv
FN:37,_ZN18BitsetTest_Or_TestD0Ev
FN:37,_ZN18BitsetTest_Or_TestD2Ev
FN:37,_ZN18BitsetTest_Or_TestC2Ev
FN:51,_ZN19BitsetTest_And_Test8TestBodyEv
FN:51,_ZN19BitsetTest_And_TestD2Ev
FN:51,_ZN19BitsetTest_And_TestD0Ev
FN:51,_ZN19BitsetTest_And_TestC2Ev
FN:65,_ZN27BitsetTest_ExclusiveOr_TestD2Ev
FN:65,_ZN27BitsetTest_ExclusiveOr_Test8TestBodyEv
FN:65,_ZN27BitsetTest_ExclusiveOr_TestD0Ev
FN:65,_ZN27BitsetTest_ExclusiveOr_TestC2Ev
FN:74,_ZN21BitsetTest_Clear_Test8TestBodyEv
FN:74,_ZN21BitsetTest_Clear_TestD2Ev
FN:74,_ZN21BitsetTest_Clear_TestD0Ev
FN:74,_ZN21BitsetTest_Clear_TestC2Ev
FN:82,_ZN19BitsetTest_Set_TestD0Ev
FN:82,_ZN19BitsetTest_Set_TestD2Ev
FN:82,_ZN19BitsetTest_Set_TestC2Ev
FN:82,_ZN19BitsetTest_Set_Test8TestBodyEv
FN:95,_ZN21BitsetTest_Reset_TestD0Ev
FN:95,_ZN21BitsetTest_Reset_TestD2Ev
FN:95,_ZN21BitsetTest_Reset_Test8TestBodyEv
FN:95,_ZN21BitsetTest_Reset_TestC2Ev
FN:111,_ZN20BitsetTest_Flip_Test8TestBodyEv
FN:111,_ZN20BitsetTest_Flip_TestD0Ev
FN:111,_ZN20BitsetTest_Flip_TestD2Ev
FN:111,_ZN20BitsetTest_Flip_TestC2Ev
FN:120,_ZN21BitsetTest_Count_TestD2Ev
FN:120,_ZN21BitsetTest_Count_TestD0Ev
FN:120,_ZN21BitsetTest_Count_Test8TestBodyEv
FN:120,_ZN21BitsetTest_Count_TestC2Ev
FN:126,_ZN20BitsetTest_Test_TestC2Ev
FN:126,_ZN20BitsetTest_Test_TestD2Ev
FN:126,_ZN20BitsetTest_Test_TestD0Ev
FN:126,_ZN20BitsetTest_Test_Test8TestBodyEv
FN:137,_ZN19BitsetTest_Any_TestD2Ev
FN:137,_ZN19BitsetTest_Any_Test8TestBodyEv
FN:137,_ZN19BitsetTest_Any_TestC2Ev
FN:137,_ZN19BitsetTest_Any_TestD0Ev
FN:143,_ZN19BitsetTest_All_TestC2Ev
FN:143,_ZN19BitsetTest_All_TestD2Ev
FN:143,_ZN19BitsetTest_All_Test8TestBodyEv
FN:143,_ZN19BitsetTest_All_TestD0Ev
FN:151,_ZN20BitsetTest_None_TestD2Ev
FN:151,_ZN20BitsetTest_None_TestC2Ev
FN:151,_ZN20BitsetTest_None_Test8TestBodyEv
FN:151,_ZN20BitsetTest_None_TestD0Ev
FN:157,_ZN25BitsetTest_LeftShift_Test8TestBodyEv
FN:157,_ZN25BitsetTest_LeftShift_TestD0Ev
FN:157,_ZN25BitsetTest_LeftShift_TestD2Ev
FN:157,_ZN25BitsetTest_LeftShift_TestC2Ev
FN:177,_ZN26BitsetTest_RightShift_TestC2Ev
FN:177,_ZN26BitsetTest_RightShift_Test8TestBodyEv
FN:177,_ZN26BitsetTest_RightShift_TestD0Ev
FN:177,_ZN26BitsetTest_RightShift_TestD2Ev
FN:199,_ZN24BitsetTest_ToString_TestC2Ev
FN:199,_ZN24BitsetTest_ToString_TestD0Ev
FN:199,_ZN24BitsetTest_ToString_Test8TestBodyEv
FN:199,_ZN24BitsetTest_ToString_TestD2Ev
FN:207,_ZN33BitsetTest_SegmentationFault_TestD2Ev
FN:207,_ZN33BitsetTest_SegmentationFault_TestC2Ev
FN:207,_ZN33BitsetTest_SegmentationFault_TestD0Ev
FN:207,_ZN33BitsetTest_SegmentationFault_Test8TestBodyEv
FNDA:5,_ZN19BitsetTest_Any_TestD0Ev
FNDA:5,_ZN26BitsetTest_Initialize_Test8TestBodyEv
FNDA:5,_ZN33BitsetTest_SegmentationFault_TestD0Ev
FNDA:5,_ZN21BitsetTest_Count_Test8TestBodyEv
FNDA:5,_ZN27BitsetTest_ExclusiveOr_TestD0Ev
FNDA:5,_ZN20BitsetTest_None_Test8TestBodyEv
FNDA:5,_ZN27BitsetTest_ExclusiveOr_TestC2Ev
FNDA:5,_ZN19BitsetTest_All_TestD2Ev
FNDA:5,_ZN19BitsetTest_Set_TestC2Ev
FNDA:5,_ZN26BitsetTest_RightShift_Test8TestBodyEv
FNDA:5,_ZN21BitsetTest_Count_TestC2Ev
FNDA:5,_ZN20BitsetTest_Flip_TestD2Ev
FNDA:5,_ZN33BitsetTest_SegmentationFault_TestC2Ev
FNDA:5,_ZN19BitsetTest_All_TestC2Ev
FNDA:5,_ZN21BitsetTest_Reset_Test8TestBodyEv
FNDA:5,_ZN19BitsetTest_And_TestD2Ev
FNDA:5,_ZN27BitsetTest_ExclusiveOr_Test8TestBodyEv
FNDA:5,_ZN19BitsetTest_Any_TestC2Ev
FNDA:85,_ZN10BitsetTest5SetUpEv
FNDA:5,_ZN21BitsetTest_Clear_TestD0Ev
FNDA:5,_ZN25BitsetTest_LeftShift_Test8TestBodyEv
FNDA:5,_ZN18BitsetTest_Or_TestD0Ev
FNDA:5,_ZN24BitsetTest_ToString_Test8TestBodyEv
FNDA:5,_ZN19BitsetTest_And_TestD0Ev
FNDA:5,_ZN19BitsetTest_And_TestC2Ev
FNDA:5,_ZN25BitsetTest_LeftShift_TestC2Ev
FNDA:5,_ZN24BitsetTest_ToString_TestD2Ev
FNDA:5,_ZN20BitsetTest_Flip_TestC2Ev
FNDA:5,_ZN19BitsetTest_All_TestD0Ev
FNDA:5,_ZN21BitsetTest_Clear_TestC2Ev
FNDA:5,_ZN20BitsetTest_Test_Test8TestBodyEv
FNDA:5,_ZN26BitsetTest_RightShift_TestD0Ev
FNDA:5,_ZN26BitsetTest_RightShift_TestD2Ev
FNDA:5,_ZN33BitsetTest_SegmentationFault_Test8TestBodyEv
FNDA:5,_ZN26BitsetTest_Initialize_TestC2Ev
FNDA:5,_ZN25BitsetTest_LeftShift_TestD0Ev
FNDA:5,_ZN20BitsetTest_None_TestD0Ev
FNDA:5,_ZN18BitsetTest_Or_TestC2Ev
FNDA:85,_ZN10BitsetTest3GetEv
FNDA:5,_ZN18BitsetTest_Or_TestD2Ev
FNDA:5,_ZN20BitsetTest_Test_TestD0Ev
FNDA:5,_ZN21BitsetTest_Reset_TestC2Ev
FNDA:5,_ZN25BitsetTest_LeftShift_TestD2Ev
FNDA:5,_ZN19BitsetTest_All_Test8TestBodyEv
FNDA:5,_ZN19BitsetTest_Set_Test8TestBodyEv
FNDA:5,_ZN20BitsetTest_Test_TestC2Ev
FNDA:5,_ZN19BitsetTest_And_Test8TestBodyEv
FNDA:5,_ZN19BitsetTest_Any_TestD2Ev
FNDA:5,_ZN20BitsetTest_None_TestD2Ev
FNDA:5,_ZN20BitsetTest_Flip_Test8TestBodyEv
FNDA:5,_ZN19BitsetTest_Set_TestD0Ev
FNDA:5,_ZN19BitsetTest_Set_TestD2Ev
FNDA:5,_ZN26BitsetTest_RightShift_TestC2Ev
FNDA:5,_ZN20BitsetTest_None_TestC2Ev
FNDA:5,_ZN24BitsetTest_ToString_TestD0Ev
FNDA:5,_ZN20BitsetTest_Flip_TestD0Ev
FNDA:5,_ZN21BitsetTest_Clear_TestD2Ev
FNDA:5,_ZN21BitsetTest_Reset_TestD2Ev
FNDA:5,_ZN21BitsetTest_Reset_TestD0Ev
FNDA:5,_ZN20BitsetTest_Test_TestD2Ev
FNDA:5,_ZN21BitsetTest_Count_TestD0Ev
FNDA:85,_ZN10BitsetTest8TearDownEv
FNDA:5,_ZN26BitsetTest_Initialize_TestD2Ev
FNDA:5,_ZN24BitsetTest_ToString_TestC2Ev
FNDA:5,_ZN33BitsetTest_SegmentationFault_TestD2Ev
FNDA:5,_ZN21BitsetTest_Clear_Test8TestBodyEv
FNDA:5,_ZN27BitsetTest_ExclusiveOr_TestD2Ev
FNDA:5,_ZN21BitsetTest_Count_TestD2Ev
FNDA:5,_ZN19BitsetTest_Any_Test8TestBodyEv
FNDA:5,_ZN18BitsetTest_Or_Test8TestBodyEv
FNDA:5,_ZN26BitsetTest_Initialize_TestD0Ev
FNF:71
FNH:71
DA:15,85
DA:16,85
DA:17,85
DA:18,85
DA:19,85
DA:20,85
DA:21,85
DA:22,85
DA:26,20
DA:28,5
DA:29,5
DA:30,5
DA:32,5
DA:33,5
DA:34,5
DA:35,5
DA:37,20
DA:38,5
DA:39,5
DA:40,5
DA:41,5
DA:42,5
DA:44,5
DA:45,5
DA:46,5
DA:47,5
DA:48,5
DA:49,5
DA:51,20
DA:52,5
DA:53,5
DA:54,5
DA:55,5
DA:56,5
DA:58,5
DA:59,5
DA:60,10
DA:61,5
DA:62,5
DA:63,5
DA:65,20
DA:66,5
DA:67,5
DA:68,5
DA:69,5
DA:70,5
DA:71,5
DA:72,5
DA:74,20
DA:75,5
DA:76,5
DA:77,5
DA:78,5
DA:79,5
DA:80,5
DA:82,20
DA:83,5
DA:84,5
DA:85,5
DA:86,5
DA:87,5
DA:89,5
DA:90,10
DA:91,5
DA:92,5
DA:93,5
DA:95,20
DA:96,5
DA:97,5
DA:99,5
DA:100,5
DA:101,5
DA:102,5
DA:104,5
DA:105,5
DA:106,10
DA:107,5
DA:108,5
DA:109,5
DA:111,20
DA:112,5
DA:113,5
DA:114,5
DA:115,5
DA:116,5
DA:117,5
DA:118,5
DA:120,20
DA:121,5
DA:122,5
DA:123,5
DA:124,5
DA:126,20
DA:127,5
DA:128,5
DA:129,5
DA:130,5
DA:131,5
DA:132,5
DA:134,5
DA:135,5
DA:137,20
DA:138,5
DA:139,5
DA:140,5
DA:141,5
DA:143,20
DA:144,5
DA:145,5
DA:146,5
DA:147,5
DA:148,5
DA:149,5
DA:151,20
DA:152,5
DA:153,5
DA:154,5
DA:155,5
DA:157,20
DA:158,5
DA:159,5
DA:161,5
DA:162,5
DA:163,5
DA:164,5
DA:166,5
DA:167,10
DA:168,5
DA:169,5
DA:171,5
DA:172,10
DA:173,5
DA:174,5
DA:175,5
DA:177,20
DA:178,5
DA:179,5
DA:180,5
DA:182,5
DA:183,5
DA:184,5
DA:185,5
DA:187,5
DA:188,5
DA:189,10
DA:190,5
DA:191,5
DA:193,5
DA:194,10
DA:195,5
DA:196,5
DA:197,5
DA:199,20
DA:200,5
DA:201,5
DA:202,5
DA:203,5
DA:204,10
DA:205,5
DA:207,20
DA:208,5
DA:209,5
DA:211,5
DA:213,5
DA:215,5
DA:217,5
DA:219,5
DA:221,5
DA:223,5
DA:225,5
DA:227,5
DA:229,5
DA:231,5
DA:233,5
DA:235,5
DA:237,5
DA:239,5
DA:240,5
LF:178
LH:178
end_of_record
