TN:
SF:/home/atohs/C/CUtils/lib/ExtendedTypes/Dictionary.c
FN:17,Dictionary_Init
FN:39,Dictionary_Add
FN:60,Dictionary_Find
FN:73,Dictionary_Destroy
FNDA:7,Dictionary_Destroy
FNDA:8,Dictionary_Find
FNDA:16,Dictionary_Add
FNDA:7,Dictionary_Init
FNF:4
FNH:4
DA:17,7
DA:18,7
DA:19,7
DA:21,7
DA:22,7
DA:23,7
DA:24,7
DA:25,7
DA:27,7
DA:28,26
DA:29,19
DA:30,19
DA:31,19
DA:32,19
DA:33,19
DA:35,7
DA:36,7
DA:37,7
DA:39,16
DA:40,16
DA:41,16
DA:42,2
DA:44,14
DA:45,1
DA:47,13
DA:48,13
DA:49,13
DA:50,13
DA:51,13
DA:52,0
DA:54,13
DA:55,13
DA:56,13
DA:57,13
DA:60,8
DA:61,8
DA:62,0
DA:64,8
DA:65,8
DA:66,8
DA:67,1
DA:69,7
DA:70,7
DA:73,7
DA:74,7
DA:75,7
DA:76,7
LF:47
LH:45
end_of_record
TN:
SF:/home/atohs/C/CUtils/tests/ExtendedTypes/DictionaryTest.h
FN:21,_ZN14DictionaryTest5SetUpEv
FN:24,_ZN14DictionaryTest8TearDownEv
FN:28,_ZN14DictionaryTest6AddAllEv
FN:35,_ZN28DictionaryTest_Normally_TestD2Ev
FN:35,_ZN28DictionaryTest_Normally_Test8TestBodyEv
FN:35,_ZN28DictionaryTest_Normally_TestC2Ev
FN:35,_ZN28DictionaryTest_Normally_TestD0Ev
FN:44,_ZN39DictionaryTestAdditional_Normally2_TestD0Ev
FN:44,_ZN39DictionaryTestAdditional_Normally2_TestC2Ev
FN:44,_ZN39DictionaryTestAdditional_Normally2_TestD2Ev
FN:44,_ZN39DictionaryTestAdditional_Normally2_Test8TestBodyEv
FN:62,_ZN39DictionaryTestAdditional_Normally3_Test8TestBodyEv
FN:62,_ZN39DictionaryTestAdditional_Normally3_TestC2Ev
FN:62,_ZN39DictionaryTestAdditional_Normally3_TestD2Ev
FN:62,_ZN39DictionaryTestAdditional_Normally3_TestD0Ev
FN:79,_ZN31DictionaryTest_KeyNotFound_TestC2Ev
FN:79,_ZN31DictionaryTest_KeyNotFound_TestD0Ev
FN:79,_ZN31DictionaryTest_KeyNotFound_Test8TestBodyEv
FN:79,_ZN31DictionaryTest_KeyNotFound_TestD2Ev
FN:85,_ZN32DictionaryTest_CapacityOver_Test8TestBodyEv
FN:85,_ZN32DictionaryTest_CapacityOver_TestC2Ev
FN:85,_ZN32DictionaryTest_CapacityOver_TestD0Ev
FN:85,_ZN32DictionaryTest_CapacityOver_TestD2Ev
FN:91,_ZN33DictionaryTest_KeySizeTooBig_TestD0Ev
FN:91,_ZN33DictionaryTest_KeySizeTooBig_TestC2Ev
FN:91,_ZN33DictionaryTest_KeySizeTooBig_TestD2Ev
FN:91,_ZN33DictionaryTest_KeySizeTooBig_Test8TestBodyEv
FN:96,_ZN36DictionaryTest_ObjectSizeTooBig_Test8TestBodyEv
FN:96,_ZN36DictionaryTest_ObjectSizeTooBig_TestD0Ev
FN:96,_ZN36DictionaryTest_ObjectSizeTooBig_TestC2Ev
FN:96,_ZN36DictionaryTest_ObjectSizeTooBig_TestD2Ev
FNDA:10,_ZN14DictionaryTest8TearDownEv
FNDA:2,_ZN32DictionaryTest_CapacityOver_Test8TestBodyEv
FNDA:6,_ZN14DictionaryTest6AddAllEv
FNDA:2,_ZN31DictionaryTest_KeyNotFound_Test8TestBodyEv
FNDA:2,_ZN31DictionaryTest_KeyNotFound_TestC2Ev
FNDA:2,_ZN31DictionaryTest_KeyNotFound_TestD0Ev
FNDA:2,_ZN36DictionaryTest_ObjectSizeTooBig_TestD0Ev
FNDA:2,_ZN28DictionaryTest_Normally_TestD2Ev
FNDA:2,_ZN33DictionaryTest_KeySizeTooBig_TestD0Ev
FNDA:2,_ZN36DictionaryTest_ObjectSizeTooBig_TestC2Ev
FNDA:2,_ZN39DictionaryTestAdditional_Normally2_TestC2Ev
FNDA:2,_ZN39DictionaryTestAdditional_Normally3_TestC2Ev
FNDA:2,_ZN39DictionaryTestAdditional_Normally2_TestD0Ev
FNDA:2,_ZN39DictionaryTestAdditional_Normally3_Test8TestBodyEv
FNDA:10,_ZN14DictionaryTest5SetUpEv
FNDA:2,_ZN36DictionaryTest_ObjectSizeTooBig_Test8TestBodyEv
FNDA:2,_ZN33DictionaryTest_KeySizeTooBig_Test8TestBodyEv
FNDA:2,_ZN31DictionaryTest_KeyNotFound_TestD2Ev
FNDA:2,_ZN28DictionaryTest_Normally_Test8TestBodyEv
FNDA:2,_ZN32DictionaryTest_CapacityOver_TestC2Ev
FNDA:2,_ZN33DictionaryTest_KeySizeTooBig_TestD2Ev
FNDA:2,_ZN33DictionaryTest_KeySizeTooBig_TestC2Ev
FNDA:2,_ZN39DictionaryTestAdditional_Normally2_Test8TestBodyEv
FNDA:2,_ZN32DictionaryTest_CapacityOver_TestD0Ev
FNDA:2,_ZN36DictionaryTest_ObjectSizeTooBig_TestD2Ev
FNDA:2,_ZN32DictionaryTest_CapacityOver_TestD2Ev
FNDA:2,_ZN28DictionaryTest_Normally_TestC2Ev
FNDA:2,_ZN39DictionaryTestAdditional_Normally2_TestD2Ev
FNDA:2,_ZN39DictionaryTestAdditional_Normally3_TestD2Ev
FNDA:2,_ZN39DictionaryTestAdditional_Normally3_TestD0Ev
FNDA:2,_ZN28DictionaryTest_Normally_TestD0Ev
FNF:31
FNH:31
DA:21,10
DA:22,10
DA:23,10
DA:24,10
DA:25,10
DA:26,10
DA:28,6
DA:29,24
DA:30,18
DA:35,8
DA:36,2
DA:37,8
DA:38,6
DA:39,6
DA:40,6
DA:42,2
DA:44,8
DA:46,2
DA:47,8
DA:48,2
DA:49,2
DA:50,6
DA:51,4
DA:53,6
DA:54,4
DA:55,4
DA:56,4
DA:57,4
DA:59,2
DA:60,0
DA:61,6
DA:62,0
DA:63,8
DA:64,8
DA:65,8
DA:66,0
DA:67,2
DA:68,6
DA:69,4
DA:70,0
DA:71,6
DA:72,4
DA:73,4
DA:74,4
DA:75,4
DA:76,0
DA:77,2
DA:78,12
DA:79,0
DA:80,8
DA:81,2
DA:82,2
DA:83,2
DA:84,2
DA:85,0
DA:86,8
DA:87,2
DA:88,2
DA:89,2
DA:90,2
DA:91,0
DA:92,8
DA:93,2
DA:94,2
DA:95,2
DA:96,0
DA:97,8
DA:98,2
DA:99,2
DA:100,2
LF:70
LH:61
end_of_record
