TN:
SF:/home/atohs/C/CUtils/lib/Thread/ThreadPool.c
FN:35,WaitForNewTask
FN:49,_ExitWorker
FN:54,StopWorkers
FN:62,WorkerThread
FN:74,WaitForWorkersExited
FN:83,AbortWorkers
FN:87,GetHardwareConcurrency
FN:93,ThreadPool_Init
FN:114,ThreadPool_Push
FN:125,ThreadPool_PushTasks
FN:138,ThreadPool_Destroy
FN:152,ThreadPool_GetNumTasks
FNDA:0,ThreadPool_GetNumTasks
FNDA:3,ThreadPool_Destroy
FNDA:3,ThreadPool_Init
FNDA:60,WorkerThread
FNDA:7,ThreadPool_Push
FNDA:3,WaitForWorkersExited
FNDA:67,WaitForNewTask
FNDA:3,StopWorkers
FNDA:0,AbortWorkers
FNDA:1,ThreadPool_PushTasks
FNDA:3,GetHardwareConcurrency
FNDA:60,_ExitWorker
FNF:12
FNH:10
DA:35,124
DA:38,124
DA:39,124
DA:40,124
DA:41,124
DA:42,67
DA:44,57
DA:46,67
DA:49,60
DA:51,60
DA:52,0
DA:54,3
DA:55,63
DA:56,60
DA:57,60
DA:58,60
DA:60,3
DA:62,60
DA:63,60
DA:64,7
DA:65,67
DA:66,67
DA:67,66
DA:68,6
DA:74,3
DA:75,63
DA:76,60
DA:77,60
DA:78,60
DA:81,3
DA:83,0
DA:84,0
DA:85,0
DA:87,3
DA:89,3
DA:90,3
DA:93,3
DA:94,3
DA:96,3
DA:97,3
DA:98,0
DA:100,3
DA:103,3
DA:104,3
DA:106,3
DA:107,63
DA:109,60
DA:110,60
DA:114,7
DA:115,7
DA:116,7
DA:117,7
DA:118,7
DA:119,7
DA:120,7
DA:121,7
DA:122,7
DA:125,1
DA:126,1
DA:127,1
DA:128,1
DA:130,4
DA:131,3
DA:132,0
DA:135,1
DA:138,3
DA:139,3
DA:140,3
DA:141,3
DA:143,0
DA:145,3
DA:146,3
DA:147,3
DA:148,3
DA:149,3
DA:152,0
DA:153,0
DA:154,0
DA:155,0
DA:156,0
DA:157,0
LF:81
LH:68
end_of_record
TN:
SF:/home/atohs/C/CUtils/tests/Thread/ThreadPoolTest.h
FN:14,_ZN14ThreadPoolTest5SetUpEv
FN:17,_ZN14ThreadPoolTest8TearDownEv
FN:21,_ZN14ThreadPoolTest4PushEPK16ThreadPoolTask_t
FN:24,_ZN14ThreadPoolTest9PushTasksEPPK16ThreadPoolTask_tm
FN:27,_ZN14ThreadPoolTest7DestroyEb
FN:33,_ZN24ThreadPoolTest_Push_TestD0Ev
FN:33,_ZN24ThreadPoolTest_Push_Test8TestBodyEv
FN:33,_ZN24ThreadPoolTest_Push_TestD2Ev
FN:33,_ZN24ThreadPoolTest_Push_TestC2Ev
FN:38,_ZZN24ThreadPoolTest_Push_Test8TestBodyEvENKUlPvE_clES0_
FN:51,_ZN29ThreadPoolTest_PushTasks_TestC2Ev
FN:51,_ZN29ThreadPoolTest_PushTasks_TestD2Ev
FN:51,_ZN29ThreadPoolTest_PushTasks_TestD0Ev
FN:51,_ZN29ThreadPoolTest_PushTasks_Test8TestBodyEv
FN:56,_ZZN29ThreadPoolTest_PushTasks_Test8TestBodyEvENKUlPvE_clES0_
FN:59,_ZZN29ThreadPoolTest_PushTasks_Test8TestBodyEvENKUlPvE0_clES0_
FN:62,_ZZN29ThreadPoolTest_PushTasks_Test8TestBodyEvENKUlPvE1_clES0_
FN:74,_ZN35ThreadPoolTest_HeavyProcessing_TestC2Ev
FN:74,_ZN35ThreadPoolTest_HeavyProcessing_TestD2Ev
FN:74,_ZN35ThreadPoolTest_HeavyProcessing_TestD0Ev
FN:74,_ZN35ThreadPoolTest_HeavyProcessing_Test8TestBodyEv
FN:79,_ZZN35ThreadPoolTest_HeavyProcessing_Test8TestBodyEvENKUlPvE_clES0_
FN:83,_ZZN35ThreadPoolTest_HeavyProcessing_Test8TestBodyEvENKUlPvE0_clES0_
FN:87,_ZZN35ThreadPoolTest_HeavyProcessing_Test8TestBodyEvENKUlPvE1_clES0_
FNDA:1,_ZZN24ThreadPoolTest_Push_Test8TestBodyEvENKUlPvE_clES0_
FNDA:1,_ZN24ThreadPoolTest_Push_TestD0Ev
FNDA:1,_ZN29ThreadPoolTest_PushTasks_TestD2Ev
FNDA:1,_ZN24ThreadPoolTest_Push_Test8TestBodyEv
FNDA:1,_ZZN29ThreadPoolTest_PushTasks_Test8TestBodyEvENKUlPvE1_clES0_
FNDA:1,_ZN29ThreadPoolTest_PushTasks_TestC2Ev
FNDA:3,_ZN14ThreadPoolTest7DestroyEb
FNDA:1,_ZN14ThreadPoolTest9PushTasksEPPK16ThreadPoolTask_tm
FNDA:1,_ZZN29ThreadPoolTest_PushTasks_Test8TestBodyEvENKUlPvE0_clES0_
FNDA:1,_ZZN35ThreadPoolTest_HeavyProcessing_Test8TestBodyEvENKUlPvE_clES0_
FNDA:1,_ZN29ThreadPoolTest_PushTasks_TestD0Ev
FNDA:3,_ZN14ThreadPoolTest8TearDownEv
FNDA:1,_ZN35ThreadPoolTest_HeavyProcessing_TestC2Ev
FNDA:3,_ZN14ThreadPoolTest5SetUpEv
FNDA:4,_ZN14ThreadPoolTest4PushEPK16ThreadPoolTask_t
FNDA:1,_ZN24ThreadPoolTest_Push_TestD2Ev
FNDA:1,_ZN29ThreadPoolTest_PushTasks_Test8TestBodyEv
FNDA:1,_ZZN35ThreadPoolTest_HeavyProcessing_Test8TestBodyEvENKUlPvE1_clES0_
FNDA:1,_ZN35ThreadPoolTest_HeavyProcessing_Test8TestBodyEv
FNDA:1,_ZN24ThreadPoolTest_Push_TestC2Ev
FNDA:1,_ZN35ThreadPoolTest_HeavyProcessing_TestD2Ev
FNDA:1,_ZN35ThreadPoolTest_HeavyProcessing_TestD0Ev
FNDA:1,_ZZN29ThreadPoolTest_PushTasks_Test8TestBodyEvENKUlPvE_clES0_
FNDA:1,_ZZN35ThreadPoolTest_HeavyProcessing_Test8TestBodyEvENKUlPvE0_clES0_
FNF:24
FNH:24
DA:14,3
DA:15,3
DA:16,3
DA:17,3
DA:18,3
DA:19,0
DA:20,3
DA:21,4
DA:22,4
DA:24,1
DA:25,1
DA:27,3
DA:28,3
DA:29,3
DA:30,3
DA:33,4
DA:35,1
DA:38,2
DA:39,1
DA:40,1
DA:41,2
DA:42,1
DA:43,1
DA:45,1
DA:47,1
DA:48,1
DA:49,1
DA:51,4
DA:56,2
DA:57,1
DA:58,2
DA:59,2
DA:60,1
DA:61,2
DA:62,2
DA:63,1
DA:64,2
DA:65,1
DA:66,1
DA:67,1
DA:69,1
DA:70,1
DA:71,1
DA:74,4
DA:79,2
DA:80,1
DA:81,1
DA:82,2
DA:83,2
DA:84,1
DA:85,1
DA:86,2
DA:87,2
DA:88,1
DA:89,1
DA:90,2
DA:92,1
DA:93,1
DA:94,1
DA:95,1
DA:96,1
DA:97,1
DA:98,1
DA:99,1
LF:64
LH:63
end_of_record
