TN:
SF:/home/atohs/C/CUtils/lib/PublisherSubscriber/Broker.c
FN:17,Republish
FN:32,Broker_Init
FN:40,Broker_Publish
FN:59,Broker_Subscribe
FN:63,Broker_Unsubscribe
FN:71,Broker_Destroy
FNDA:7,Broker_Subscribe
FNDA:1,Broker_Unsubscribe
FNDA:8,Broker_Publish
FNDA:8,Republish
FNDA:6,Broker_Destroy
FNDA:6,Broker_Init
FNF:6
FNH:6
DA:17,8
DA:18,8
DA:19,8
DA:20,8
DA:21,9
DA:22,1
DA:23,1
DA:24,1
DA:25,0
DA:27,1
DA:29,8
DA:32,6
DA:33,6
DA:34,6
DA:35,6
DA:36,6
DA:37,6
DA:40,8
DA:41,11
DA:43,8
DA:44,8
DA:45,8
DA:46,8
DA:47,3
DA:49,11
DA:50,6
DA:51,6
DA:52,1
DA:53,1
DA:59,7
DA:60,7
DA:63,1
DA:68,1
DA:69,1
DA:71,6
DA:72,6
DA:73,6
DA:74,6
LF:38
LH:37
end_of_record
TN:
SF:/home/atohs/C/CUtils/lib/PublisherSubscriber/MessageStorage.c
FN:8,GetBottom
FN:12,GetTop
FN:16,UpdateTop
FN:24,UpdateBottom
FN:32,MessageStorage_Init
FN:39,MessageStorage_Push
FN:51,MessageStorage_Pop
FN:66,MessageStorage_Peek
FN:71,MessageStorage_MoveLast
FN:81,MessageStorage_RemoveTop
FN:89,MessageStorage_Destroy
FNDA:13,MessageStorage_Destroy
FNDA:3,MessageStorage_RemoveTop
FNDA:12,MessageStorage_Pop
FNDA:19,MessageStorage_Push
FNDA:13,UpdateTop
FNDA:3,MessageStorage_Peek
FNDA:13,MessageStorage_Init
FNDA:19,GetBottom
FNDA:19,UpdateBottom
FNDA:13,GetTop
FNDA:2,MessageStorage_MoveLast
FNF:11
FNH:11
DA:8,19
DA:9,19
DA:12,13
DA:13,13
DA:16,13
DA:17,13
DA:18,1
DA:20,12
DA:22,13
DA:24,19
DA:25,19
DA:26,2
DA:28,17
DA:30,19
DA:32,13
DA:33,13
DA:34,13
DA:35,13
DA:36,13
DA:37,13
DA:39,19
DA:40,19
DA:41,1
DA:42,1
DA:44,18
DA:45,18
DA:46,18
DA:47,18
DA:48,18
DA:51,12
DA:52,12
DA:53,1
DA:54,1
DA:56,11
DA:57,1
DA:58,1
DA:60,10
DA:61,10
DA:62,10
DA:63,10
DA:66,3
DA:67,3
DA:68,2
DA:71,2
DA:72,2
DA:73,1
DA:75,1
DA:76,1
DA:77,1
DA:78,1
DA:81,3
DA:82,3
DA:83,1
DA:85,2
DA:86,2
DA:89,13
DA:90,13
DA:91,0
DA:93,13
DA:94,13
LF:60
LH:59
end_of_record
TN:
SF:/home/atohs/C/CUtils/lib/PublisherSubscriber/Publisher.c
FN:4,Publisher_Init
FN:8,Publisher_Subscribe
FN:12,Publisher_Unsubscribe
FN:16,Publisher_Publish
FN:20,Publisher_Destroy
FNDA:7,Publisher_Subscribe
FNDA:8,Publisher_Publish
FNDA:1,Publisher_Unsubscribe
FNDA:6,Publisher_Destroy
FNDA:6,Publisher_Init
FNF:5
FNH:5
DA:4,6
DA:5,6
DA:6,6
DA:8,7
DA:9,7
DA:12,1
DA:13,1
DA:14,1
DA:16,8
DA:17,8
DA:18,8
DA:20,6
DA:21,6
DA:22,6
LF:14
LH:14
end_of_record
TN:
SF:/home/atohs/C/CUtils/lib/PublisherSubscriber/Subscriber.c
FN:5,Subscriber_Init
FN:11,Subscriber_Update
FN:18,Subscriber_Destroy
FNDA:7,Subscriber_Update
FNDA:18,Subscriber_Init
FNDA:18,Subscriber_Destroy
FNF:3
FNH:3
DA:5,18
DA:6,18
DA:7,18
DA:8,18
DA:9,18
DA:11,7
DA:12,7
DA:13,7
DA:15,0
DA:18,18
DA:19,18
DA:20,18
LF:12
LH:11
end_of_record
TN:
SF:/home/atohs/C/CUtils/lib/PublisherSubscriber/Subscription.c
FN:8,GetAccount
FN:12,IsMatch
FN:16,Subscription_Init
FN:22,Subscription_Contract
FN:37,Subscription_Cancellation
FN:48,Subscription_GetAccount
FN:61,Subscription_Match
FN:77,Subscription_Destroy
FN:82,Subscription_Count
FNDA:15,Subscription_Init
FNDA:13,Subscription_Match
FNDA:56,GetAccount
FNDA:1,Subscription_Count
FNDA:15,Subscription_Destroy
FNDA:26,IsMatch
FNDA:3,Subscription_Cancellation
FNDA:26,Subscription_Contract
FNDA:15,Subscription_GetAccount
FNF:9
FNH:9
DA:8,56
DA:9,56
DA:12,26
DA:13,26
DA:16,15
DA:17,15
DA:18,15
DA:19,15
DA:20,15
DA:22,26
DA:23,48
DA:24,47
DA:25,47
DA:26,25
DA:27,25
DA:28,25
DA:29,25
DA:30,25
DA:33,1
DA:34,1
DA:37,3
DA:38,3
DA:39,1
DA:40,1
DA:42,2
DA:43,2
DA:44,2
DA:48,15
DA:49,15
DA:50,1
DA:51,1
DA:53,14
DA:54,14
DA:55,12
DA:57,2
DA:58,2
DA:61,13
DA:62,13
DA:63,62
DA:64,50
DA:65,50
DA:66,26
DA:67,38
DA:68,12
DA:69,1
DA:70,1
DA:72,11
DA:74,12
DA:77,15
DA:78,15
DA:79,15
DA:80,15
DA:82,1
DA:83,1
DA:84,5
DA:85,4
DA:86,4
DA:87,2
DA:90,1
LF:59
LH:59
end_of_record
TN:
SF:/home/atohs/C/CUtils/tests/PublisherSubscriber/MessageStorageTest.h
FN:17,_ZN18MessageStorageTest5SetUpEv
FN:20,_ZN18MessageStorageTest8TearDownEv
FN:24,_ZN18MessageStorageTest4PushEPKSt17basic_string_viewIcSt11char_traitsIcEE
FN:27,_ZN18MessageStorageTest3PopEPSt17basic_string_viewIcSt11char_traitsIcEE
FN:30,_ZN18MessageStorageTest4PeekEv
FN:33,_ZN18MessageStorageTest8MoveLastEv
FN:36,_ZN18MessageStorageTest9RemoveTopEv
FN:41,_ZN31MessageStorageTest_PushPoP_TestD0Ev
FN:41,_ZN31MessageStorageTest_PushPoP_TestD2Ev
FN:41,_ZN31MessageStorageTest_PushPoP_Test8TestBodyEv
FN:41,_ZN31MessageStorageTest_PushPoP_TestC2Ev
FN:48,_ZN39MessageStorageTest_MultiplePushPop_TestD0Ev
FN:48,_ZN39MessageStorageTest_MultiplePushPop_Test8TestBodyEv
FN:48,_ZN39MessageStorageTest_MultiplePushPop_TestC2Ev
FN:48,_ZN39MessageStorageTest_MultiplePushPop_TestD2Ev
FN:60,_ZN39MessageStorageTest_PeekAndMoveLast_TestC2Ev
FN:60,_ZN39MessageStorageTest_PeekAndMoveLast_TestD0Ev
FN:60,_ZN39MessageStorageTest_PeekAndMoveLast_TestD2Ev
FN:60,_ZN39MessageStorageTest_PeekAndMoveLast_Test8TestBodyEv
FN:72,_ZN33MessageStorageTest_RemoveTop_Test8TestBodyEv
FN:72,_ZN33MessageStorageTest_RemoveTop_TestD2Ev
FN:72,_ZN33MessageStorageTest_RemoveTop_TestC2Ev
FN:72,_ZN33MessageStorageTest_RemoveTop_TestD0Ev
FN:82,_ZN35MessageStorageTest_BufferEmpty_TestC2Ev
FN:82,_ZN35MessageStorageTest_BufferEmpty_TestD0Ev
FN:82,_ZN35MessageStorageTest_BufferEmpty_Test8TestBodyEv
FN:82,_ZN35MessageStorageTest_BufferEmpty_TestD2Ev
FN:94,_ZN36MessageStorageTest_OverCapacity_TestD0Ev
FN:94,_ZN36MessageStorageTest_OverCapacity_TestC2Ev
FN:94,_ZN36MessageStorageTest_OverCapacity_TestD2Ev
FN:94,_ZN36MessageStorageTest_OverCapacity_Test8TestBodyEv
FN:102,_ZN37MessageStorageTest_RoundTheArray_TestC2Ev
FN:102,_ZN37MessageStorageTest_RoundTheArray_TestD2Ev
FN:102,_ZN37MessageStorageTest_RoundTheArray_Test8TestBodyEv
FN:102,_ZN37MessageStorageTest_RoundTheArray_TestD0Ev
FNDA:36,_ZN18MessageStorageTest4PushEPKSt17basic_string_viewIcSt11char_traitsIcEE
FNDA:2,_ZN39MessageStorageTest_MultiplePushPop_TestD2Ev
FNDA:2,_ZN33MessageStorageTest_RemoveTop_TestC2Ev
FNDA:2,_ZN39MessageStorageTest_PeekAndMoveLast_Test8TestBodyEv
FNDA:2,_ZN33MessageStorageTest_RemoveTop_TestD0Ev
FNDA:2,_ZN31MessageStorageTest_PushPoP_TestC2Ev
FNDA:2,_ZN31MessageStorageTest_PushPoP_Test8TestBodyEv
FNDA:14,_ZN18MessageStorageTest5SetUpEv
FNDA:2,_ZN36MessageStorageTest_OverCapacity_Test8TestBodyEv
FNDA:2,_ZN33MessageStorageTest_RemoveTop_TestD2Ev
FNDA:4,_ZN18MessageStorageTest9RemoveTopEv
FNDA:2,_ZN31MessageStorageTest_PushPoP_TestD2Ev
FNDA:2,_ZN39MessageStorageTest_MultiplePushPop_Test8TestBodyEv
FNDA:2,_ZN39MessageStorageTest_PeekAndMoveLast_TestD2Ev
FNDA:2,_ZN35MessageStorageTest_BufferEmpty_TestD2Ev
FNDA:2,_ZN39MessageStorageTest_PeekAndMoveLast_TestD0Ev
FNDA:4,_ZN18MessageStorageTest4PeekEv
FNDA:2,_ZN39MessageStorageTest_MultiplePushPop_TestC2Ev
FNDA:2,_ZN37MessageStorageTest_RoundTheArray_TestD0Ev
FNDA:2,_ZN35MessageStorageTest_BufferEmpty_TestD0Ev
FNDA:2,_ZN39MessageStorageTest_MultiplePushPop_TestD0Ev
FNDA:2,_ZN39MessageStorageTest_PeekAndMoveLast_TestC2Ev
FNDA:2,_ZN35MessageStorageTest_BufferEmpty_Test8TestBodyEv
FNDA:24,_ZN18MessageStorageTest3PopEPSt17basic_string_viewIcSt11char_traitsIcEE
FNDA:2,_ZN33MessageStorageTest_RemoveTop_Test8TestBodyEv
FNDA:2,_ZN31MessageStorageTest_PushPoP_TestD0Ev
FNDA:4,_ZN18MessageStorageTest8MoveLastEv
FNDA:2,_ZN36MessageStorageTest_OverCapacity_TestC2Ev
FNDA:2,_ZN37MessageStorageTest_RoundTheArray_TestD2Ev
FNDA:2,_ZN36MessageStorageTest_OverCapacity_TestD0Ev
FNDA:2,_ZN37MessageStorageTest_RoundTheArray_TestC2Ev
FNDA:2,_ZN35MessageStorageTest_BufferEmpty_TestC2Ev
FNDA:14,_ZN18MessageStorageTest8TearDownEv
FNDA:2,_ZN37MessageStorageTest_RoundTheArray_Test8TestBodyEv
FNDA:2,_ZN36MessageStorageTest_OverCapacity_TestD2Ev
FNF:35
FNH:35
DA:17,14
DA:18,14
DA:19,14
DA:20,14
DA:21,14
DA:22,14
DA:24,36
DA:25,36
DA:27,24
DA:28,24
DA:30,4
DA:31,4
DA:33,4
DA:34,4
DA:35,4
DA:36,4
DA:37,4
DA:38,4
DA:41,8
DA:42,2
DA:43,2
DA:44,2
DA:45,2
DA:48,8
DA:49,2
DA:50,2
DA:51,2
DA:52,2
DA:53,2
DA:54,2
DA:55,2
DA:56,2
DA:57,2
DA:60,8
DA:61,2
DA:62,2
DA:63,2
DA:64,2
DA:65,2
DA:66,2
DA:67,2
DA:68,2
DA:69,2
DA:72,8
DA:73,2
DA:74,2
DA:75,2
DA:76,2
DA:77,2
DA:78,2
DA:79,2
DA:80,2
DA:82,8
DA:83,2
DA:84,2
DA:85,2
DA:86,2
DA:87,2
DA:88,2
DA:89,2
DA:90,2
DA:91,2
DA:94,8
DA:95,2
DA:96,2
DA:97,2
DA:98,2
DA:99,2
DA:102,8
DA:103,2
DA:104,2
DA:105,2
DA:106,2
DA:107,2
DA:108,2
DA:109,2
DA:110,2
DA:111,2
DA:112,2
DA:113,2
DA:114,2
DA:115,2
DA:116,2
DA:117,2
DA:118,2
LF:85
LH:85
end_of_record
TN:
SF:/home/atohs/C/CUtils/tests/PublisherSubscriber/PubSubTest.h
FN:21,_ZN7SubjectC2Ev
FN:24,_ZN7SubjectD2Ev
FN:27,_ZN7Subject9SubscribeEP12Subscriber_ti
FN:30,_ZN7Subject7PublishEmi
FN:34,_ZN7Subject11UnsubscribeEi
FN:43,_ZNK8Observer6UpdateMUlPS_PK16PublishContent_tE_clES0_S3_
FN:48,_ZN8ObserverC2Ev
FN:49,_ZZN8ObserverC4EvENKUlPK16PublishContent_tPvE_clES2_S3_
FN:56,_ZN8ObserverD2Ev
FN:67,_ZN10PubSubTest5SetUpEv
FN:68,_ZN10PubSubTest8TearDownEv
FN:71,_ZN23PubSubTest_Publish_Test8TestBodyEv
FN:71,_ZN23PubSubTest_Publish_TestC2Ev
FN:71,_ZN23PubSubTest_Publish_TestD0Ev
FN:71,_ZN23PubSubTest_Publish_TestD2Ev
FN:80,_ZN31PubSubTest_MultiplePublish_TestD2Ev
FN:80,_ZN31PubSubTest_MultiplePublish_TestC2Ev
FN:80,_ZN31PubSubTest_MultiplePublish_TestD0Ev
FN:80,_ZN31PubSubTest_MultiplePublish_Test8TestBodyEv
FN:91,_ZN27PubSubTest_Subscribers_TestC2Ev
FN:91,_ZN27PubSubTest_Subscribers_Test8TestBodyEv
FN:91,_ZN27PubSubTest_Subscribers_TestD0Ev
FN:91,_ZN27PubSubTest_Subscribers_TestD2Ev
FN:103,_ZN34PubSubTest_DifferentAttribute_TestC2Ev
FN:103,_ZN34PubSubTest_DifferentAttribute_TestD0Ev
FN:103,_ZN34PubSubTest_DifferentAttribute_Test8TestBodyEv
FN:103,_ZN34PubSubTest_DifferentAttribute_TestD2Ev
FN:109,_ZN25PubSubTest_Republish_Test8TestBodyEv
FN:109,_ZN25PubSubTest_Republish_TestD0Ev
FN:109,_ZN25PubSubTest_Republish_TestC2Ev
FN:109,_ZN25PubSubTest_Republish_TestD2Ev
FN:111,_ZZN25PubSubTest_Republish_Test8TestBodyEvENKUlP8ObserverPK16PublishContent_tE_clES1_S4_
FN:124,_ZN27PubSubTest_Unsubscribe_Test8TestBodyEv
FN:124,_ZN27PubSubTest_Unsubscribe_TestD2Ev
FN:124,_ZN27PubSubTest_Unsubscribe_TestD0Ev
FN:124,_ZN27PubSubTest_Unsubscribe_TestC2Ev
FNDA:2,_ZN34PubSubTest_DifferentAttribute_TestD0Ev
FNDA:12,_ZN7SubjectD2Ev
FNDA:2,_ZN27PubSubTest_Unsubscribe_TestD0Ev
FNDA:2,_ZN34PubSubTest_DifferentAttribute_Test8TestBodyEv
FNDA:2,_ZN25PubSubTest_Republish_TestC2Ev
FNDA:16,_ZN7Subject7PublishEmi
FNDA:4,_ZZN25PubSubTest_Republish_Test8TestBodyEvENKUlP8ObserverPK16PublishContent_tE_clES1_S4_
FNDA:2,_ZN25PubSubTest_Republish_TestD2Ev
FNDA:2,_ZN27PubSubTest_Unsubscribe_TestD2Ev
FNDA:2,_ZN25PubSubTest_Republish_TestD0Ev
FNDA:2,_ZN34PubSubTest_DifferentAttribute_TestC2Ev
FNDA:36,_ZN8ObserverC2Ev
FNDA:2,_ZN31PubSubTest_MultiplePublish_TestD2Ev
FNDA:36,_ZN8ObserverD2Ev
FNDA:2,_ZN7Subject11UnsubscribeEi
FNDA:2,_ZN27PubSubTest_Unsubscribe_Test8TestBodyEv
FNDA:2,_ZN27PubSubTest_Subscribers_TestC2Ev
FNDA:2,_ZN23PubSubTest_Publish_Test8TestBodyEv
FNDA:2,_ZN25PubSubTest_Republish_Test8TestBodyEv
FNDA:2,_ZN31PubSubTest_MultiplePublish_TestC2Ev
FNDA:2,_ZN31PubSubTest_MultiplePublish_TestD0Ev
FNDA:2,_ZN31PubSubTest_MultiplePublish_Test8TestBodyEv
FNDA:12,_ZN10PubSubTest8TearDownEv
FNDA:12,_ZN10PubSubTest5SetUpEv
FNDA:14,_ZZN8ObserverC4EvENKUlPK16PublishContent_tPvE_clES2_S3_
FNDA:2,_ZN23PubSubTest_Publish_TestD0Ev
FNDA:10,_ZNK8Observer6UpdateMUlPS_PK16PublishContent_tE_clES0_S3_
FNDA:2,_ZN34PubSubTest_DifferentAttribute_TestD2Ev
FNDA:2,_ZN27PubSubTest_Subscribers_TestD0Ev
FNDA:2,_ZN23PubSubTest_Publish_TestD2Ev
FNDA:2,_ZN27PubSubTest_Unsubscribe_TestC2Ev
FNDA:2,_ZN27PubSubTest_Subscribers_TestD2Ev
FNDA:2,_ZN27PubSubTest_Subscribers_Test8TestBodyEv
FNDA:12,_ZN7SubjectC2Ev
FNDA:14,_ZN7Subject9SubscribeEP12Subscriber_ti
FNDA:2,_ZN23PubSubTest_Publish_TestC2Ev
FNF:36
FNH:36
DA:21,12
DA:22,12
DA:23,12
DA:24,12
DA:25,12
DA:26,12
DA:27,14
DA:28,14
DA:30,16
DA:31,16
DA:32,16
DA:33,16
DA:34,2
DA:35,2
DA:36,2
DA:43,10
DA:44,10
DA:48,36
DA:49,36
DA:50,14
DA:51,14
DA:52,14
DA:53,14
DA:55,36
DA:56,36
DA:57,36
DA:58,36
DA:67,12
DA:68,12
DA:71,8
DA:72,2
DA:73,2
DA:74,2
DA:75,2
DA:76,2
DA:77,2
DA:80,8
DA:81,2
DA:82,2
DA:83,2
DA:84,2
DA:85,2
DA:86,2
DA:87,2
DA:88,2
DA:91,8
DA:92,2
DA:93,2
DA:94,2
DA:95,2
DA:96,2
DA:97,2
DA:98,2
DA:99,2
DA:100,2
DA:103,8
DA:104,2
DA:105,2
DA:106,2
DA:107,2
DA:109,8
DA:110,2
DA:111,4
DA:112,4
DA:113,2
DA:115,2
DA:116,2
DA:117,2
DA:118,2
DA:119,2
DA:120,2
DA:121,2
DA:124,8
DA:125,2
DA:126,2
DA:127,2
DA:128,2
DA:129,2
LF:78
LH:78
end_of_record
TN:
SF:/home/atohs/C/CUtils/tests/PublisherSubscriber/SubscriptionTest.h
FN:15,_ZN16SubscriptionTest5SetUpEv
FN:18,_ZN16SubscriptionTest8TearDownEv
FN:22,_ZN16SubscriptionTest8ContractEP12Subscriber_ti
FN:25,_ZN16SubscriptionTest12CancellationEi
FN:28,_ZN16SubscriptionTest5MatchEiPim
FN:31,_ZN16SubscriptionTest5CountEv
FN:34,_ZN16SubscriptionTest10GetAccountEi
FN:43,_ZN30SubscriptionTest_Contract_TestC2Ev
FN:43,_ZN30SubscriptionTest_Contract_TestD2Ev
FN:43,_ZN30SubscriptionTest_Contract_TestD0Ev
FN:43,_ZN30SubscriptionTest_Contract_Test8TestBodyEv
FN:56,_ZN28SubscriptionTest_Cancel_TestD2Ev
FN:56,_ZN28SubscriptionTest_Cancel_TestD0Ev
FN:56,_ZN28SubscriptionTest_Cancel_TestC2Ev
FN:56,_ZN28SubscriptionTest_Cancel_Test8TestBodyEv
FN:64,_ZN39SubscriptionTest_MultipleContracts_TestC2Ev
FN:64,_ZN39SubscriptionTest_MultipleContracts_Test8TestBodyEv
FN:64,_ZN39SubscriptionTest_MultipleContracts_TestD2Ev
FN:64,_ZN39SubscriptionTest_MultipleContracts_TestD0Ev
FN:78,_ZN40SubscriptionTest_ExceedsNumAccounts_TestD2Ev
FN:78,_ZN40SubscriptionTest_ExceedsNumAccounts_TestC2Ev
FN:78,_ZN40SubscriptionTest_ExceedsNumAccounts_Test8TestBodyEv
FN:78,_ZN40SubscriptionTest_ExceedsNumAccounts_TestD0Ev
FN:87,_ZN33SubscriptionTest_IdNotExists_TestD0Ev
FN:87,_ZN33SubscriptionTest_IdNotExists_Test8TestBodyEv
FN:87,_ZN33SubscriptionTest_IdNotExists_TestC2Ev
FN:87,_ZN33SubscriptionTest_IdNotExists_TestD2Ev
FN:94,_ZN41SubscriptionTest_InvalidAPIsArgument_TestD2Ev
FN:94,_ZN41SubscriptionTest_InvalidAPIsArgument_Test8TestBodyEv
FN:94,_ZN41SubscriptionTest_InvalidAPIsArgument_TestD0Ev
FN:94,_ZN41SubscriptionTest_InvalidAPIsArgument_TestC2Ev
FN:100,_ZN29SubscriptionTest_Matches_TestD0Ev
FN:100,_ZN29SubscriptionTest_Matches_Test8TestBodyEv
FN:100,_ZN29SubscriptionTest_Matches_TestC2Ev
FN:100,_ZN29SubscriptionTest_Matches_TestD2Ev
FN:115,_ZN39SubscriptionTest_MatchedBufferOver_TestC2Ev
FN:115,_ZN39SubscriptionTest_MatchedBufferOver_TestD2Ev
FN:115,_ZN39SubscriptionTest_MatchedBufferOver_TestD0Ev
FN:115,_ZN39SubscriptionTest_MatchedBufferOver_Test8TestBodyEv
FN:123,_ZN27SubscriptionTest_count_Test8TestBodyEv
FN:123,_ZN27SubscriptionTest_count_TestC2Ev
FN:123,_ZN27SubscriptionTest_count_TestD2Ev
FN:123,_ZN27SubscriptionTest_count_TestD0Ev
FNDA:2,_ZN40SubscriptionTest_ExceedsNumAccounts_TestC2Ev
FNDA:2,_ZN33SubscriptionTest_IdNotExists_TestC2Ev
FNDA:2,_ZN27SubscriptionTest_count_TestD2Ev
FNDA:18,_ZN16SubscriptionTest8TearDownEv
FNDA:2,_ZN39SubscriptionTest_MultipleContracts_TestD2Ev
FNDA:2,_ZN30SubscriptionTest_Contract_TestC2Ev
FNDA:2,_ZN40SubscriptionTest_ExceedsNumAccounts_TestD0Ev
FNDA:2,_ZN28SubscriptionTest_Cancel_TestC2Ev
FNDA:2,_ZN33SubscriptionTest_IdNotExists_TestD2Ev
FNDA:2,_ZN28SubscriptionTest_Cancel_Test8TestBodyEv
FNDA:2,_ZN27SubscriptionTest_count_TestD0Ev
FNDA:2,_ZN40SubscriptionTest_ExceedsNumAccounts_Test8TestBodyEv
FNDA:2,_ZN30SubscriptionTest_Contract_TestD2Ev
FNDA:4,_ZN16SubscriptionTest12CancellationEi
FNDA:2,_ZN39SubscriptionTest_MatchedBufferOver_TestD0Ev
FNDA:2,_ZN30SubscriptionTest_Contract_Test8TestBodyEv
FNDA:2,_ZN39SubscriptionTest_MatchedBufferOver_Test8TestBodyEv
FNDA:2,_ZN29SubscriptionTest_Matches_TestD2Ev
FNDA:2,_ZN39SubscriptionTest_MultipleContracts_TestD0Ev
FNDA:2,_ZN30SubscriptionTest_Contract_TestD0Ev
FNDA:2,_ZN29SubscriptionTest_Matches_Test8TestBodyEv
FNDA:2,_ZN41SubscriptionTest_InvalidAPIsArgument_Test8TestBodyEv
FNDA:2,_ZN41SubscriptionTest_InvalidAPIsArgument_TestD2Ev
FNDA:2,_ZN39SubscriptionTest_MultipleContracts_TestC2Ev
FNDA:38,_ZN16SubscriptionTest8ContractEP12Subscriber_ti
FNDA:2,_ZN40SubscriptionTest_ExceedsNumAccounts_TestD2Ev
FNDA:2,_ZN28SubscriptionTest_Cancel_TestD2Ev
FNDA:2,_ZN33SubscriptionTest_IdNotExists_TestD0Ev
FNDA:2,_ZN39SubscriptionTest_MatchedBufferOver_TestC2Ev
FNDA:2,_ZN29SubscriptionTest_Matches_TestD0Ev
FNDA:2,_ZN33SubscriptionTest_IdNotExists_Test8TestBodyEv
FNDA:2,_ZN27SubscriptionTest_count_Test8TestBodyEv
FNDA:2,_ZN27SubscriptionTest_count_TestC2Ev
FNDA:2,_ZN28SubscriptionTest_Cancel_TestD0Ev
FNDA:2,_ZN29SubscriptionTest_Matches_TestC2Ev
FNDA:2,_ZN39SubscriptionTest_MultipleContracts_Test8TestBodyEv
FNDA:2,_ZN16SubscriptionTest5CountEv
FNDA:16,_ZN16SubscriptionTest10GetAccountEi
FNDA:18,_ZN16SubscriptionTest5SetUpEv
FNDA:2,_ZN39SubscriptionTest_MatchedBufferOver_TestD2Ev
FNDA:2,_ZN41SubscriptionTest_InvalidAPIsArgument_TestD0Ev
FNDA:2,_ZN41SubscriptionTest_InvalidAPIsArgument_TestC2Ev
FNDA:10,_ZN16SubscriptionTest5MatchEiPim
FNF:43
FNH:43
DA:15,18
DA:16,18
DA:17,18
DA:18,18
DA:19,18
DA:20,18
DA:22,38
DA:23,38
DA:25,4
DA:26,4
DA:27,4
DA:28,10
DA:29,10
DA:31,2
DA:32,2
DA:34,16
DA:35,16
DA:43,8
DA:44,2
DA:45,2
DA:46,2
DA:47,2
DA:48,2
DA:49,2
DA:50,2
DA:51,2
DA:52,2
DA:53,2
DA:56,8
DA:58,2
DA:59,2
DA:60,2
DA:61,2
DA:64,8
DA:66,2
DA:67,2
DA:68,2
DA:69,2
DA:70,2
DA:71,2
DA:73,2
DA:74,2
DA:75,2
DA:78,8
DA:80,2
DA:81,2
DA:82,2
DA:83,2
DA:84,2
DA:87,8
DA:89,2
DA:90,2
DA:91,2
DA:94,8
DA:95,2
DA:96,2
DA:97,2
DA:98,2
DA:100,8
DA:102,2
DA:103,2
DA:104,2
DA:105,2
DA:107,2
DA:108,2
DA:109,2
DA:110,2
DA:111,2
DA:112,2
DA:115,8
DA:117,2
DA:118,2
DA:120,2
DA:121,2
DA:123,8
DA:125,2
DA:126,2
DA:127,2
DA:128,2
LF:79
LH:79
end_of_record
